target datalayout = "e-m:e-p270:32:32-p271:32:32-p272:64:64-i64:64-i128:128-f80:128-n8:16:32:64-S128"
target triple = "x86_64-pc-linux-gnu"

%union.pthread_mutex_t = type { %struct.__pthread_mutex_s }
%struct.__pthread_mutex_s = type { i32, i32, i32, i32, i32, i16, i16, %struct.__pthread_internal_list }
%struct.__pthread_internal_list = type { ptr, ptr }
%struct.pmix_tma = type { ptr, ptr, ptr, ptr, ptr, ptr, ptr, ptr }
%struct.pmix_list_t = type { %struct.pmix_object_t, %struct.pmix_list_item_t, i64 }
%struct.pmix_object_t = type { %union.pthread_mutex_t, ptr, i32, %struct.pmix_tma }
%struct.pmix_list_item_t = type { %struct.pmix_object_t, ptr, ptr, i32 }
%struct.pmix_bfrops_globals_t = type { %struct.pmix_list_t, i8, i8, i64, i64, i8 }

@.str = private unnamed_addr constant [5 x i8] c"pmix\00", align 1
@.str.1 = private unnamed_addr constant [7 x i8] c"bfrops\00", align 1
@.str.7 = private unnamed_addr constant [5 x i8] c"base\00", align 1
@.str.8 = private unnamed_addr constant [13 x i8] c"initial_size\00", align 1
@.str.9 = private unnamed_addr constant [25 x i8] c"Initial size of a buffer\00", align 1
@.str.10 = private unnamed_addr constant [15 x i8] c"threshold_size\00", align 1
@.str.11 = private unnamed_addr constant [92 x i8] c"Size at which we switch from extending a buffer by doubling to extending by a smaller value\00", align 1
@.str.12 = private unnamed_addr constant [13 x i8] c"default_type\00", align 1
@.str.13 = private unnamed_addr constant [25 x i8] c"Default type for buffers\00", align 1

; Function Attrs: nounwind uwtable
define internal i32 @pmix_bfrop_register(i32 noundef %0) #0 {
  %2 = alloca i32, align 4
  store i32 %0, ptr %2, align 4, !tbaa !3
  %3 = load i32, ptr %2, align 4, !tbaa !3
  %4 = icmp eq i32 0, %3
  br i1 %4, label %5, label %6

5:                                                ; preds = %1
  br label %6

6:                                                ; preds = %5, %1
  store i64 128, ptr getelementptr inbounds nuw (%struct.pmix_bfrops_globals_t, ptr @pmix_bfrops_globals, i32 0, i32 3), align 8, !tbaa !7
  %7 = call i32 @pmix_mca_base_var_register(ptr noundef @.str, ptr noundef @.str.1, ptr noundef @.str.7, ptr noundef @.str.8, ptr noundef @.str.9, i32 noundef 4, ptr noundef getelementptr inbounds nuw (%struct.pmix_bfrops_globals_t, ptr @pmix_bfrops_globals, i32 0, i32 3))
  store i64 1024, ptr getelementptr inbounds nuw (%struct.pmix_bfrops_globals_t, ptr @pmix_bfrops_globals, i32 0, i32 4), align 8, !tbaa !18
  %8 = call i32 @pmix_mca_base_var_register(ptr noundef @.str, ptr noundef @.str.1, ptr noundef @.str.7, ptr noundef @.str.10, ptr noundef @.str.11, i32 noundef 4, ptr noundef getelementptr inbounds nuw (%struct.pmix_bfrops_globals_t, ptr @pmix_bfrops_globals, i32 0, i32 4))
  store i8 1, ptr getelementptr inbounds nuw (%struct.pmix_bfrops_globals_t, ptr @pmix_bfrops_globals, i32 0, i32 5), align 8, !tbaa !19
  %9 = call i32 @pmix_mca_base_var_register(ptr noundef @.str, ptr noundef @.str.1, ptr noundef @.str.7, ptr noundef @.str.12, ptr noundef @.str.13, i32 noundef 0, ptr noundef getelementptr inbounds nuw (%struct.pmix_bfrops_globals_t, ptr @pmix_bfrops_globals, i32 0, i32 5))
  ret i32 0
}