; Function Attrs: nounwind uwtable
define internal noundef i32 @pmix_bfrop_register(i32 %0) #0 {
  store i64 128, ptr getelementptr inbounds nuw (i8, ptr @pmix_bfrops_globals, i64 280), align 8, !tbaa !3
  %2 = tail call i32 @pmix_mca_base_var_register(ptr noundef nonnull @.str, ptr noundef nonnull @.str.1, ptr noundef nonnull @.str.7, ptr noundef nonnull @.str.8, ptr noundef nonnull @.str.9, i32 noundef 4, ptr noundef nonnull getelementptr inbounds nuw (i8, ptr @pmix_bfrops_globals, i64 280)) #11
  store i64 1024, ptr getelementptr inbounds nuw (i8, ptr @pmix_bfrops_globals, i64 288), align 8, !tbaa !17
  %3 = tail call i32 @pmix_mca_base_var_register(ptr noundef nonnull @.str, ptr noundef nonnull @.str.1, ptr noundef nonnull @.str.7, ptr noundef nonnull @.str.10, ptr noundef nonnull @.str.11, i32 noundef 4, ptr noundef nonnull getelementptr inbounds nuw (i8, ptr @pmix_bfrops_globals, i64 288)) #11
  store i8 1, ptr getelementptr inbounds nuw (i8, ptr @pmix_bfrops_globals, i64 296), align 8, !tbaa !18
  %4 = tail call i32 @pmix_mca_base_var_register(ptr noundef nonnull @.str, ptr noundef nonnull @.str.1, ptr noundef nonnull @.str.7, ptr noundef nonnull @.str.12, ptr noundef nonnull @.str.13, i32 noundef 0, ptr noundef nonnull getelementptr inbounds nuw (i8, ptr @pmix_bfrops_globals, i64 296)) #11
  ret i32 0
}